target datalayout = "e-m:e-p270:32:32-p271:32:32-p272:64:64-i64:64-i128:128-f80:128-n8:16:32:64-S128"
target triple = "x86_64-pc-linux-gnu"

%struct._object = type { %union.anon, ptr }
%union.anon = type { i64 }
%struct.stringio = type { %struct._object, ptr, i64, i64, i64, i32, ptr, i8, i8, i8, i8, ptr, ptr, ptr, ptr, ptr, ptr }

; Function Attrs: inlinehint nounwind uwtable
define internal ptr @_Py_TYPE(ptr noundef %0) #2 {
  %2 = alloca ptr, align 8
  store ptr %0, ptr %2, align 8, !tbaa !37
  %3 = load ptr, ptr %2, align 8, !tbaa !37
  %4 = getelementptr inbounds nuw %struct._object, ptr %3, i32 0, i32 1
  %5 = load ptr, ptr %4, align 8, !tbaa !45
  ret ptr %5
}

; Function Attrs: nounwind uwtable
define internal i32 @stringio_traverse(ptr noundef %0, ptr noundef %1, ptr noundef %2) #0 {
  %4 = alloca i32, align 4
  %5 = alloca ptr, align 8
  %6 = alloca ptr, align 8
  %7 = alloca ptr, align 8
  %8 = alloca i32, align 4
  %9 = alloca i32, align 4
  %10 = alloca i32, align 4
  %11 = alloca i32, align 4
  %12 = alloca i32, align 4
  %13 = alloca i32, align 4
  store ptr %0, ptr %5, align 8, !tbaa !4
  store ptr %1, ptr %6, align 8, !tbaa !4
  store ptr %2, ptr %7, align 8, !tbaa !4
  br label %14

14:                                               ; preds = %3
  %15 = load ptr, ptr %5, align 8, !tbaa !4
  %16 = call ptr @_Py_TYPE(ptr noundef %15)
  %17 = icmp ne ptr %16, null
  br i1 %17, label %18, label %32

18:                                               ; preds = %14
  call void @llvm.lifetime.start.p0(i64 4, ptr %8) #7
  %19 = load ptr, ptr %6, align 8, !tbaa !4
  %20 = load ptr, ptr %5, align 8, !tbaa !4
  %21 = call ptr @_Py_TYPE(ptr noundef %20)
  %22 = load ptr, ptr %7, align 8, !tbaa !4
  %23 = call i32 %19(ptr noundef %21, ptr noundef %22)
  store i32 %23, ptr %8, align 4, !tbaa !30
  %24 = load i32, ptr %8, align 4, !tbaa !30
  %25 = icmp ne i32 %24, 0
  br i1 %25, label %26, label %28

26:                                               ; preds = %18
  %27 = load i32, ptr %8, align 4, !tbaa !30
  store i32 %27, ptr %4, align 4
  store i32 1, ptr %9, align 4
  br label %29

28:                                               ; preds = %18
  store i32 0, ptr %9, align 4
  br label %29

29:                                               ; preds = %28, %26
  call void @llvm.lifetime.end.p0(i64 4, ptr %8) #7
  %30 = load i32, ptr %9, align 4
  switch i32 %30, label %124 [
    i32 0, label %31
    i32 1, label %122
  ]

31:                                               ; preds = %29
  br label %32

32:                                               ; preds = %31, %14
  br label %33

33:                                               ; preds = %32
  br label %34

34:                                               ; preds = %33
  %35 = load ptr, ptr %5, align 8, !tbaa !4
  %36 = getelementptr inbounds nuw %struct.stringio, ptr %35, i32 0, i32 12
  %37 = load ptr, ptr %36, align 8, !tbaa !31
  %38 = icmp ne ptr %37, null
  br i1 %38, label %39, label %54

39:                                               ; preds = %34
  call void @llvm.lifetime.start.p0(i64 4, ptr %10) #7
  %40 = load ptr, ptr %6, align 8, !tbaa !4
  %41 = load ptr, ptr %5, align 8, !tbaa !4
  %42 = getelementptr inbounds nuw %struct.stringio, ptr %41, i32 0, i32 12
  %43 = load ptr, ptr %42, align 8, !tbaa !31
  %44 = load ptr, ptr %7, align 8, !tbaa !4
  %45 = call i32 %40(ptr noundef %43, ptr noundef %44)
  store i32 %45, ptr %10, align 4, !tbaa !30
  %46 = load i32, ptr %10, align 4, !tbaa !30
  %47 = icmp ne i32 %46, 0
  br i1 %47, label %48, label %50

48:                                               ; preds = %39
  %49 = load i32, ptr %10, align 4, !tbaa !30
  store i32 %49, ptr %4, align 4
  store i32 1, ptr %9, align 4
  br label %51

50:                                               ; preds = %39
  store i32 0, ptr %9, align 4
  br label %51

51:                                               ; preds = %50, %48
  call void @llvm.lifetime.end.p0(i64 4, ptr %10) #7
  %52 = load i32, ptr %9, align 4
  switch i32 %52, label %124 [
    i32 0, label %53
    i32 1, label %122
  ]

53:                                               ; preds = %51
  br label %54

54:                                               ; preds = %53, %34
  br label %55

55:                                               ; preds = %54
  br label %56

56:                                               ; preds = %55
  %57 = load ptr, ptr %5, align 8, !tbaa !4
  %58 = getelementptr inbounds nuw %struct.stringio, ptr %57, i32 0, i32 13
  %59 = load ptr, ptr %58, align 8, !tbaa !32
  %60 = icmp ne ptr %59, null
  br i1 %60, label %61, label %76

61:                                               ; preds = %56
  call void @llvm.lifetime.start.p0(i64 4, ptr %11) #7
  %62 = load ptr, ptr %6, align 8, !tbaa !4
  %63 = load ptr, ptr %5, align 8, !tbaa !4
  %64 = getelementptr inbounds nuw %struct.stringio, ptr %63, i32 0, i32 13
  %65 = load ptr, ptr %64, align 8, !tbaa !32
  %66 = load ptr, ptr %7, align 8, !tbaa !4
  %67 = call i32 %62(ptr noundef %65, ptr noundef %66)
  store i32 %67, ptr %11, align 4, !tbaa !30
  %68 = load i32, ptr %11, align 4, !tbaa !30
  %69 = icmp ne i32 %68, 0
  br i1 %69, label %70, label %72

70:                                               ; preds = %61
  %71 = load i32, ptr %11, align 4, !tbaa !30
  store i32 %71, ptr %4, align 4
  store i32 1, ptr %9, align 4
  br label %73

72:                                               ; preds = %61
  store i32 0, ptr %9, align 4
  br label %73

73:                                               ; preds = %72, %70
  call void @llvm.lifetime.end.p0(i64 4, ptr %11) #7
  %74 = load i32, ptr %9, align 4
  switch i32 %74, label %124 [
    i32 0, label %75
    i32 1, label %122
  ]

75:                                               ; preds = %73
  br label %76

76:                                               ; preds = %75, %56
  br label %77

77:                                               ; preds = %76
  br label %78

78:                                               ; preds = %77
  %79 = load ptr, ptr %5, align 8, !tbaa !4
  %80 = getelementptr inbounds nuw %struct.stringio, ptr %79, i32 0, i32 11
  %81 = load ptr, ptr %80, align 8, !tbaa !33
  %82 = icmp ne ptr %81, null
  br i1 %82, label %83, label %98

83:                                               ; preds = %78
  call void @llvm.lifetime.start.p0(i64 4, ptr %12) #7
  %84 = load ptr, ptr %6, align 8, !tbaa !4
  %85 = load ptr, ptr %5, align 8, !tbaa !4
  %86 = getelementptr inbounds nuw %struct.stringio, ptr %85, i32 0, i32 11
  %87 = load ptr, ptr %86, align 8, !tbaa !33
  %88 = load ptr, ptr %7, align 8, !tbaa !4
  %89 = call i32 %84(ptr noundef %87, ptr noundef %88)
  store i32 %89, ptr %12, align 4, !tbaa !30
  %90 = load i32, ptr %12, align 4, !tbaa !30
  %91 = icmp ne i32 %90, 0
  br i1 %91, label %92, label %94

92:                                               ; preds = %83
  %93 = load i32, ptr %12, align 4, !tbaa !30
  store i32 %93, ptr %4, align 4
  store i32 1, ptr %9, align 4
  br label %95

94:                                               ; preds = %83
  store i32 0, ptr %9, align 4
  br label %95

95:                                               ; preds = %94, %92
  call void @llvm.lifetime.end.p0(i64 4, ptr %12) #7
  %96 = load i32, ptr %9, align 4
  switch i32 %96, label %124 [
    i32 0, label %97
    i32 1, label %122
  ]

97:                                               ; preds = %95
  br label %98

98:                                               ; preds = %97, %78
  br label %99

99:                                               ; preds = %98
  br label %100

100:                                              ; preds = %99
  %101 = load ptr, ptr %5, align 8, !tbaa !4
  %102 = getelementptr inbounds nuw %struct.stringio, ptr %101, i32 0, i32 14
  %103 = load ptr, ptr %102, align 8, !tbaa !34
  %104 = icmp ne ptr %103, null
  br i1 %104, label %105, label %120

105:                                              ; preds = %100
  call void @llvm.lifetime.start.p0(i64 4, ptr %13) #7
  %106 = load ptr, ptr %6, align 8, !tbaa !4
  %107 = load ptr, ptr %5, align 8, !tbaa !4
  %108 = getelementptr inbounds nuw %struct.stringio, ptr %107, i32 0, i32 14
  %109 = load ptr, ptr %108, align 8, !tbaa !34
  %110 = load ptr, ptr %7, align 8, !tbaa !4
  %111 = call i32 %106(ptr noundef %109, ptr noundef %110)
  store i32 %111, ptr %13, align 4, !tbaa !30
  %112 = load i32, ptr %13, align 4, !tbaa !30
  %113 = icmp ne i32 %112, 0
  br i1 %113, label %114, label %116

114:                                              ; preds = %105
  %115 = load i32, ptr %13, align 4, !tbaa !30
  store i32 %115, ptr %4, align 4
  store i32 1, ptr %9, align 4
  br label %117

116:                                              ; preds = %105
  store i32 0, ptr %9, align 4
  br label %117

117:                                              ; preds = %116, %114
  call void @llvm.lifetime.end.p0(i64 4, ptr %13) #7
  %118 = load i32, ptr %9, align 4
  switch i32 %118, label %124 [
    i32 0, label %119
    i32 1, label %122
  ]

119:                                              ; preds = %117
  br label %120

120:                                              ; preds = %119, %100
  br label %121

121:                                              ; preds = %120
  store i32 0, ptr %4, align 4
  br label %122

122:                                              ; preds = %121, %117, %95, %73, %51, %29
  %123 = load i32, ptr %4, align 4
  ret i32 %123

124:                                              ; preds = %117, %95, %73, %51, %29
  unreachable
}