; Function Attrs: nounwind uwtable
define internal i32 @stringio_traverse(ptr noundef readonly captures(none) %0, ptr noundef readonly captures(none) %1, ptr noundef %2) #0 {
  %4 = getelementptr i8, ptr %0, i64 8
  %.val = load ptr, ptr %4, align 8, !tbaa !4
  %.not = icmp eq ptr %.val, null
  br i1 %.not, label %7, label %5

5:                                                ; preds = %3
  %6 = tail call i32 %1(ptr noundef nonnull %.val, ptr noundef %2) #6
  %.not47.not = icmp eq i32 %6, 0
  br i1 %.not47.not, label %7, label %28

7:                                                ; preds = %5, %3
  %8 = getelementptr inbounds nuw i8, ptr %0, i64 80
  %9 = load ptr, ptr %8, align 8, !tbaa !33
  %.not48 = icmp eq ptr %9, null
  br i1 %.not48, label %12, label %10

10:                                               ; preds = %7
  %11 = tail call i32 %1(ptr noundef nonnull %9, ptr noundef %2) #6
  %.not49.not = icmp eq i32 %11, 0
  br i1 %.not49.not, label %12, label %28

12:                                               ; preds = %10, %7
  %13 = getelementptr inbounds nuw i8, ptr %0, i64 88
  %14 = load ptr, ptr %13, align 8, !tbaa !34
  %.not50 = icmp eq ptr %14, null
  br i1 %.not50, label %17, label %15

15:                                               ; preds = %12
  %16 = tail call i32 %1(ptr noundef nonnull %14, ptr noundef %2) #6
  %.not51.not = icmp eq i32 %16, 0
  br i1 %.not51.not, label %17, label %28

17:                                               ; preds = %15, %12
  %18 = getelementptr inbounds nuw i8, ptr %0, i64 72
  %19 = load ptr, ptr %18, align 8, !tbaa !35
  %.not52 = icmp eq ptr %19, null
  br i1 %.not52, label %22, label %20

20:                                               ; preds = %17
  %21 = tail call i32 %1(ptr noundef nonnull %19, ptr noundef %2) #6
  %.not53.not = icmp eq i32 %21, 0
  br i1 %.not53.not, label %22, label %28

22:                                               ; preds = %20, %17
  %23 = getelementptr inbounds nuw i8, ptr %0, i64 96
  %24 = load ptr, ptr %23, align 8, !tbaa !36
  %.not54 = icmp eq ptr %24, null
  br i1 %.not54, label %27, label %25

25:                                               ; preds = %22
  %26 = tail call i32 %1(ptr noundef nonnull %24, ptr noundef %2) #6
  %.not55.not = icmp eq i32 %26, 0
  br i1 %.not55.not, label %27, label %28

27:                                               ; preds = %25, %22
  br label %28

28:                                               ; preds = %25, %20, %15, %10, %5, %27
  %.1 = phi i32 [ %6, %5 ], [ %11, %10 ], [ %16, %15 ], [ %21, %20 ], [ %26, %25 ], [ 0, %27 ]
  ret i32 %.1
}